; Function Attrs: mustprogress nounwind uwtable
define hidden noundef nonnull align 8 dereferenceable(96) ptr @_ZNK17MachNullCheckNode10in_RegMaskEj(ptr nocapture noundef nonnull readonly align 8 dereferenceable(68) %0, i32 noundef %1) unnamed_addr #6 align 2 {
  %3 = icmp eq i32 %1, 0
  br i1 %3, label %13, label %4

4:                                                ; preds = %2
  %5 = getelementptr inbounds i8, ptr %0, i64 8
  %6 = load ptr, ptr %5, align 8
  %7 = getelementptr inbounds i8, ptr %6, i64 8
  %8 = load ptr, ptr %7, align 8
  %9 = load ptr, ptr %8, align 8
  %10 = getelementptr inbounds i8, ptr %9, i64 128
  %11 = load ptr, ptr %10, align 8
  %12 = tail call noundef nonnull align 8 dereferenceable(96) ptr %11(ptr noundef nonnull align 8 dereferenceable(52) %8) #13
  br label %13

13:                                               ; preds = %2, %4
  %.0 = phi ptr [ %12, %4 ], [ @_ZN7RegMask5EmptyE, %2 ]
  ret ptr %.0
}